; Function Attrs: mustprogress nounwind uwtable
define dso_local void @_ZN3igl7tinyply7PlyFileD2Ev(ptr noundef nonnull align 8 captures(none) dereferenceable(8) %0) unnamed_addr #2 align 2 personality ptr @__gxx_personality_v0 {
  %2 = load ptr, ptr %0, align 8, !tbaa !221
  %.not.i = icmp eq ptr %2, null
  br i1 %.not.i, label %_ZNSt10unique_ptrIN3igl7tinyply7PlyFile11PlyFileImplESt14default_deleteIS3_EED2Ev.exit, label %_ZNKSt14default_deleteIN3igl7tinyply7PlyFile11PlyFileImplEEclEPS3_.exit.i

_ZNKSt14default_deleteIN3igl7tinyply7PlyFile11PlyFileImplEEclEPS3_.exit.i: ; preds = %1
  tail call void @_ZN3igl7tinyply7PlyFile11PlyFileImplD2Ev(ptr noundef nonnull align 8 dereferenceable(200) %2) #30
  tail call void @_ZdlPvm(ptr noundef nonnull %2, i64 noundef 200) #32
  br label %_ZNSt10unique_ptrIN3igl7tinyply7PlyFile11PlyFileImplESt14default_deleteIS3_EED2Ev.exit

_ZNSt10unique_ptrIN3igl7tinyply7PlyFile11PlyFileImplESt14default_deleteIS3_EED2Ev.exit: ; preds = %1, %_ZNKSt14default_deleteIN3igl7tinyply7PlyFile11PlyFileImplEEclEPS3_.exit.i
  store ptr null, ptr %0, align 8, !tbaa !221
  ret void
}